; Function Attrs: nounwind uwtable
define noalias nonnull ptr @l_Lean_JsonRpc_instInhabitedRequest___rarg(ptr noundef %0) #0 {
  %2 = load ptr, ptr @l_Lean_JsonRpc_instInhabitedRequestID___closed__2, align 8, !tbaa !4
  %3 = load ptr, ptr @l_Lean_JsonRpc_instInhabitedRequestID___closed__1, align 8, !tbaa !4
  tail call void @lean_inc_heartbeat() #7
  %4 = tail call noalias ptr @mi_malloc_small(i64 noundef 32) #7
  %5 = icmp eq ptr %4, null
  br i1 %5, label %6, label %lean_alloc_ctor.exit

6:                                                ; preds = %1
  tail call void @lean_internal_panic_out_of_memory() #8
  unreachable

lean_alloc_ctor.exit:                             ; preds = %1
  %7 = getelementptr inbounds nuw i8, ptr %4, i64 4
  store i32 1, ptr %4, align 4, !tbaa !10
  store i32 196640, ptr %7, align 4
  %8 = getelementptr inbounds nuw i8, ptr %4, i64 8
  store ptr %2, ptr %8, align 8, !tbaa !4
  %9 = getelementptr inbounds nuw i8, ptr %4, i64 16
  store ptr %3, ptr %9, align 8, !tbaa !4
  %10 = getelementptr inbounds nuw i8, ptr %4, i64 24
  store ptr %0, ptr %10, align 8, !tbaa !4
  ret ptr %4
}